target datalayout = "e-m:e-p270:32:32-p271:32:32-p272:64:64-i64:64-i128:128-f80:128-n8:16:32:64-S128"
target triple = "x86_64-pc-linux-gnu"

@.str.1160 = private unnamed_addr constant [14 x i8] c"Assa Abloy R3\00", align 1
@.str.1161 = private unnamed_addr constant [3 x i8] c"R3\00", align 1
@.str.1162 = private unnamed_addr constant [3 x i8] c"r3\00", align 1
@proto_r3 = internal global i32 0, align 4
@r3_handle = internal global ptr null, align 8

; Function Attrs: null_pointer_is_valid sspstrong uwtable
define hidden void @proto_register_r3() #0 {
  %1 = alloca ptr, align 8
  call void @llvm.lifetime.start.p0(i64 8, ptr %1) #5
  %2 = call i32 @proto_register_protocol(ptr noundef @.str.1160, ptr noundef @.str.1161, ptr noundef @.str.1162)
  store i32 %2, ptr @proto_r3, align 4
  %3 = load i32, ptr @proto_r3, align 4
  %4 = call ptr @register_dissector(ptr noundef @.str.1162, ptr noundef @dissect_r3, i32 noundef %3)
  store ptr %4, ptr @r3_handle, align 8
  %5 = load i32, ptr @proto_r3, align 4
  call void @proto_register_field_array(i32 noundef %5, ptr noundef @proto_register_r3.hf, i32 noundef 628)
  call void @proto_register_subtree_array(ptr noundef @proto_register_r3.ett, i32 noundef 66)
  %6 = load i32, ptr @proto_r3, align 4
  %7 = call ptr @expert_register_protocol(i32 noundef %6)
  store ptr %7, ptr %1, align 8
  %8 = load ptr, ptr %1, align 8
  call void @expert_register_field_array(ptr noundef %8, ptr noundef @proto_register_r3.ei, i32 noundef 11)
  call void @llvm.lifetime.end.p0(i64 8, ptr %1) #5
  ret void
}