; Function Attrs: null_pointer_is_valid sspstrong uwtable
define hidden void @proto_register_r3() local_unnamed_addr #0 {
  %1 = tail call i32 @proto_register_protocol(ptr noundef nonnull @.str.1160, ptr noundef nonnull @.str.1161, ptr noundef nonnull @.str.1162)
  store i32 %1, ptr @proto_r3, align 4
  %2 = tail call ptr @register_dissector(ptr noundef nonnull @.str.1162, ptr noundef nonnull @dissect_r3, i32 noundef %1)
  store ptr %2, ptr @r3_handle, align 8
  %3 = load i32, ptr @proto_r3, align 4
  tail call void @proto_register_field_array(i32 noundef %3, ptr noundef nonnull @proto_register_r3.hf, i32 noundef 628)
  tail call void @proto_register_subtree_array(ptr noundef nonnull @proto_register_r3.ett, i32 noundef 66)
  %4 = load i32, ptr @proto_r3, align 4
  %5 = tail call ptr @expert_register_protocol(i32 noundef %4)
  tail call void @expert_register_field_array(ptr noundef %5, ptr noundef nonnull @proto_register_r3.ei, i32 noundef 11)
  ret void
}